target datalayout = "e-m:e-p270:32:32-p271:32:32-p272:64:64-i64:64-i128:128-f80:128-n8:16:32:64-S128"
target triple = "x86_64-pc-linux-gnu"

%struct.stat = type { i64, i64, i64, i32, i32, i32, i32, i64, i64, i64, i64, %struct.timespec, %struct.timespec, %struct.timespec, [3 x i64] }
%struct.timespec = type { i64, i64 }
%struct._php_stream_statbuf = type { %struct.stat }

@.str.16 = private unnamed_addr constant [8 x i8] c"file://\00", align 1

; Function Attrs: nounwind uwtable
define internal i32 @php_plain_files_url_stater(ptr noundef %0, ptr noundef %1, i32 noundef %2, ptr noundef %3, ptr noundef %4) #0 {
  %6 = alloca i32, align 4
  %7 = alloca ptr, align 8
  %8 = alloca ptr, align 8
  %9 = alloca i32, align 4
  %10 = alloca ptr, align 8
  %11 = alloca ptr, align 8
  store ptr %0, ptr %7, align 8, !tbaa !71
  store ptr %1, ptr %8, align 8, !tbaa !4
  store i32 %2, ptr %9, align 4, !tbaa !12
  store ptr %3, ptr %10, align 8, !tbaa !57
  store ptr %4, ptr %11, align 8, !tbaa !72
  %12 = load i32, ptr %9, align 4, !tbaa !12
  %13 = and i32 %12, 4
  %14 = icmp ne i32 %13, 0
  br i1 %14, label %32, label %15

15:                                               ; preds = %5
  %16 = load ptr, ptr %8, align 8, !tbaa !4
  %17 = call i32 @strncasecmp(ptr noundef %16, ptr noundef @.str.16, i64 noundef 7) #14
  %18 = icmp eq i32 %17, 0
  br i1 %18, label %19, label %22

19:                                               ; preds = %15
  %20 = load ptr, ptr %8, align 8, !tbaa !4
  %21 = getelementptr inbounds nuw i8, ptr %20, i64 7
  store ptr %21, ptr %8, align 8, !tbaa !4
  br label %22

22:                                               ; preds = %19, %15
  %23 = load ptr, ptr %8, align 8, !tbaa !4
  %24 = load i32, ptr %9, align 4, !tbaa !12
  %25 = and i32 %24, 2
  %26 = icmp ne i32 %25, 0
  %27 = select i1 %26, i32 0, i32 1
  %28 = call i32 @php_check_open_basedir_ex(ptr noundef %23, i32 noundef %27)
  %29 = icmp ne i32 %28, 0
  br i1 %29, label %30, label %31

30:                                               ; preds = %22
  store i32 -1, ptr %6, align 4
  br label %46

31:                                               ; preds = %22
  br label %32

32:                                               ; preds = %31, %5
  %33 = load i32, ptr %9, align 4, !tbaa !12
  %34 = and i32 %33, 1
  %35 = icmp ne i32 %34, 0
  br i1 %35, label %36, label %41

36:                                               ; preds = %32
  %37 = load ptr, ptr %8, align 8, !tbaa !4
  %38 = load ptr, ptr %10, align 8, !tbaa !57
  %39 = getelementptr inbounds nuw %struct._php_stream_statbuf, ptr %38, i32 0, i32 0
  %40 = call i32 @lstat(ptr noundef %37, ptr noundef %39) #13
  store i32 %40, ptr %6, align 4
  br label %46

41:                                               ; preds = %32
  %42 = load ptr, ptr %8, align 8, !tbaa !4
  %43 = load ptr, ptr %10, align 8, !tbaa !57
  %44 = getelementptr inbounds nuw %struct._php_stream_statbuf, ptr %43, i32 0, i32 0
  %45 = call i32 @stat(ptr noundef %42, ptr noundef %44) #13
  store i32 %45, ptr %6, align 4
  br label %46

46:                                               ; preds = %41, %36, %30
  %47 = load i32, ptr %6, align 4
  ret i32 %47
}