; Function Attrs: nounwind uwtable
define internal noundef i32 @php_plain_files_url_stater(ptr readnone captures(none) %0, ptr noundef %1, i32 noundef %2, ptr noundef captures(none) %3, ptr readnone captures(none) %4) #3 {
  %6 = and i32 %2, 4
  %.not = icmp eq i32 %6, 0
  br i1 %.not, label %7, label %13

7:                                                ; preds = %5
  %8 = tail call i32 @strncasecmp(ptr noundef %1, ptr noundef nonnull @.str.16, i64 noundef 7) #16
  %9 = icmp eq i32 %8, 0
  %spec.select.idx = select i1 %9, i64 7, i64 0
  %spec.select = getelementptr inbounds nuw i8, ptr %1, i64 %spec.select.idx
  %10 = lshr i32 %2, 1
  %.lobit = and i32 %10, 1
  %11 = xor i32 %.lobit, 1
  %12 = tail call i32 @php_check_open_basedir_ex(ptr noundef %spec.select, i32 noundef %11) #17
  %.not12 = icmp eq i32 %12, 0
  br i1 %.not12, label %13, label %19

13:                                               ; preds = %7, %5
  %.010 = phi ptr [ %1, %5 ], [ %spec.select, %7 ]
  %14 = and i32 %2, 1
  %.not13 = icmp eq i32 %14, 0
  br i1 %.not13, label %17, label %15

15:                                               ; preds = %13
  %16 = tail call i32 @lstat(ptr noundef %.010, ptr noundef %3) #17
  br label %19

17:                                               ; preds = %13
  %18 = tail call i32 @stat(ptr noundef %.010, ptr noundef %3) #17
  br label %19

19:                                               ; preds = %7, %17, %15
  %.0 = phi i32 [ %16, %15 ], [ %18, %17 ], [ -1, %7 ]
  ret i32 %.0
}